; Function Attrs: mustprogress nounwind uwtable
define hidden void @_ZN7testing8internal18SetInjectableArgvsEPKSt6vectorINSt7__cxx1112basic_stringIcSt11char_traitsIcESaIcEEESaIS7_EE(ptr noundef %argvs) local_unnamed_addr #7 personality ptr @__gxx_personality_v0 {
entry:
  %0 = load ptr, ptr @_ZN7testing8internalL21g_injected_test_argvsB5cxx11E, align 8
  %cmp.not = icmp eq ptr %0, %argvs
  %isnull = icmp eq ptr %0, null
  %or.cond = or i1 %cmp.not, %isnull
  br i1 %or.cond, label %if.end, label %delete.notnull

delete.notnull:                                   ; preds = %entry
  %1 = load ptr, ptr %0, align 8
  %_M_finish.i = getelementptr inbounds i8, ptr %0, i64 8
  %2 = load ptr, ptr %_M_finish.i, align 8
  %cmp.not3.i.i.i.i = icmp eq ptr %1, %2
  br i1 %cmp.not3.i.i.i.i, label %invoke.cont.i, label %for.body.i.i.i.i

for.body.i.i.i.i:                                 ; preds = %delete.notnull, %for.body.i.i.i.i
  %__first.addr.04.i.i.i.i = phi ptr [ %incdec.ptr.i.i.i.i, %for.body.i.i.i.i ], [ %1, %delete.notnull ]
  tail call void @_ZNSt7__cxx1112basic_stringIcSt11char_traitsIcESaIcEED1Ev(ptr noundef nonnull align 8 dereferenceable(32) %__first.addr.04.i.i.i.i) #47
  %incdec.ptr.i.i.i.i = getelementptr inbounds i8, ptr %__first.addr.04.i.i.i.i, i64 32
  %cmp.not.i.i.i.i = icmp eq ptr %incdec.ptr.i.i.i.i, %2
  br i1 %cmp.not.i.i.i.i, label %invoke.contthread-pre-split.i, label %for.body.i.i.i.i, !llvm.loop !19

invoke.contthread-pre-split.i:                    ; preds = %for.body.i.i.i.i
  %.pr.i = load ptr, ptr %0, align 8
  br label %invoke.cont.i

invoke.cont.i:                                    ; preds = %invoke.contthread-pre-split.i, %delete.notnull
  %3 = phi ptr [ %.pr.i, %invoke.contthread-pre-split.i ], [ %1, %delete.notnull ]
  %tobool.not.i.i.i = icmp eq ptr %3, null
  br i1 %tobool.not.i.i.i, label %_ZNSt6vectorINSt7__cxx1112basic_stringIcSt11char_traitsIcESaIcEEESaIS5_EED2Ev.exit, label %if.then.i.i.i

if.then.i.i.i:                                    ; preds = %invoke.cont.i
  tail call void @_ZdlPv(ptr noundef nonnull %3) #51
  br label %_ZNSt6vectorINSt7__cxx1112basic_stringIcSt11char_traitsIcESaIcEEESaIS5_EED2Ev.exit

_ZNSt6vectorINSt7__cxx1112basic_stringIcSt11char_traitsIcESaIcEEESaIS5_EED2Ev.exit: ; preds = %invoke.cont.i, %if.then.i.i.i
  tail call void @_ZdlPv(ptr noundef nonnull %0) #51
  br label %if.end

if.end:                                           ; preds = %_ZNSt6vectorINSt7__cxx1112basic_stringIcSt11char_traitsIcESaIcEEESaIS5_EED2Ev.exit, %entry
  store ptr %argvs, ptr @_ZN7testing8internalL21g_injected_test_argvsB5cxx11E, align 8
  ret void
}